target datalayout = "e-m:e-p270:32:32-p271:32:32-p272:64:64-i64:64-i128:128-f80:128-n8:16:32:64-S128"
target triple = "x86_64-pc-linux-gnu"

%struct.darktable_t = type { %struct.dt_codepath_t, i32, i32, ptr, ptr, ptr, ptr, ptr, ptr, ptr, ptr, ptr, ptr, ptr, ptr, ptr, ptr, ptr, ptr, ptr, ptr, ptr, ptr, ptr, ptr, ptr, ptr, ptr, ptr, ptr, [64 x %struct.dt_pthread_mutex_t], %struct.dt_pthread_mutex_t, %struct.dt_pthread_mutex_t, %struct.dt_pthread_mutex_t, %struct.dt_pthread_mutex_t, %struct.dt_pthread_mutex_t, ptr, ptr, ptr, ptr, ptr, ptr, ptr, ptr, ptr, ptr, ptr, ptr, ptr, %struct.dt_lua_state_t, ptr, double, ptr, i32, [47 x i32], i32, i32, ptr, ptr, %struct.dt_sys_resources_t, %struct.dt_backthumb_t, %struct.dt_gimp_t }
%struct.dt_codepath_t = type { i8, [3 x i8] }
%struct.dt_pthread_mutex_t = type { %union.pthread_mutex_t }
%union.pthread_mutex_t = type { %struct.__pthread_mutex_s }
%struct.__pthread_mutex_s = type { i32, i32, i32, i32, i32, i16, i16, %struct.__pthread_internal_list }
%struct.__pthread_internal_list = type { ptr, ptr }
%struct.dt_lua_state_t = type { i32 }
%struct.dt_sys_resources_t = type { i64, i64, ptr, ptr, i32 }
%struct.dt_backthumb_t = type { double, double, i32, i32, i32, i32 }
%struct.dt_gimp_t = type { i32, ptr, ptr, i32, i32 }
%struct._GtkWidgetClass = type { %struct._GObjectClass, i32, ptr, ptr, ptr, ptr, ptr, ptr, ptr, ptr, ptr, ptr, ptr, ptr, ptr, ptr, ptr, ptr, ptr, ptr, ptr, ptr, ptr, ptr, ptr, ptr, ptr, ptr, ptr, ptr, ptr, ptr, ptr, ptr, ptr, ptr, ptr, ptr, ptr, ptr, ptr, ptr, ptr, ptr, ptr, ptr, ptr, ptr, ptr, ptr, ptr, ptr, ptr, ptr, ptr, ptr, ptr, ptr, ptr, ptr, ptr, ptr, ptr, ptr, ptr, ptr, ptr, ptr, ptr, ptr, ptr, ptr, ptr, ptr, ptr, ptr, ptr, ptr, ptr, ptr, ptr, ptr, ptr, ptr, ptr, ptr, ptr }
%struct._GObjectClass = type { %struct._GTypeClass, ptr, ptr, ptr, ptr, ptr, ptr, ptr, ptr, ptr, i64, [6 x ptr] }
%struct._GTypeClass = type { i64 }
%struct.dt_gui_gtk_t = type { ptr, %struct.dt_gui_widgets_t, %struct.dt_gui_scrollbars_t, i32, ptr, i32, [39 x %struct._GdkRGBA], i32, i32, i32, i32, i32, double, double, double, double, ptr, double, double, double, double, i32, i32, [4096 x i8], i32, i32, i32, %struct.dt_pthread_mutex_t }
%struct.dt_gui_widgets_t = type { ptr, ptr, ptr, ptr, i32, i32, i32 }
%struct.dt_gui_scrollbars_t = type { ptr, ptr, i32 }
%struct._GdkRGBA = type { double, double, double, double }

@dtgtk_side_panel_parent_class = internal global ptr null, align 8
@darktable = external global %struct.darktable_t, align 8
@.str.2 = private unnamed_addr constant [6 x i8] c"right\00", align 1

; Function Attrs: nounwind uwtable
define internal void @dtgtk_side_panel_get_preferred_width(ptr noundef %0, ptr noundef %1, ptr noundef %2) #0 {
  %4 = alloca ptr, align 8
  %5 = alloca ptr, align 8
  %6 = alloca ptr, align 8
  %7 = alloca i32, align 4
  store ptr %0, ptr %4, align 8, !tbaa !27
  store ptr %1, ptr %5, align 8, !tbaa !29
  store ptr %2, ptr %6, align 8, !tbaa !29
  %8 = load ptr, ptr @dtgtk_side_panel_parent_class, align 8, !tbaa !15
  %9 = call i64 @gtk_widget_get_type() #7
  %10 = call ptr @g_type_check_class_cast(ptr noundef %8, i64 noundef %9)
  %11 = getelementptr inbounds nuw %struct._GtkWidgetClass, ptr %10, i32 0, i32 24
  %12 = load ptr, ptr %11, align 8, !tbaa !26
  %13 = load ptr, ptr %4, align 8, !tbaa !27
  %14 = load ptr, ptr %5, align 8, !tbaa !29
  %15 = load ptr, ptr %6, align 8, !tbaa !29
  call void %12(ptr noundef %13, ptr noundef %14, ptr noundef %15)
  call void @llvm.lifetime.start.p0(i64 4, ptr %7) #6
  %16 = load ptr, ptr getelementptr inbounds nuw (%struct.darktable_t, ptr @darktable, i32 0, i32 14), align 8, !tbaa !31
  %17 = getelementptr inbounds nuw %struct.dt_gui_gtk_t, ptr %16, i32 0, i32 0
  %18 = load ptr, ptr %17, align 8, !tbaa !67
  %19 = load ptr, ptr %4, align 8, !tbaa !27
  %20 = call ptr @gtk_widget_get_name(ptr noundef %19)
  %21 = call i32 @strcmp(ptr noundef %20, ptr noundef @.str.2) #8
  %22 = icmp ne i32 %21, 0
  %23 = select i1 %22, i32 3, i32 4
  %24 = call i32 @dt_ui_panel_get_size(ptr noundef %18, i32 noundef %23)
  store i32 %24, ptr %7, align 4, !tbaa !13
  %25 = load i32, ptr %7, align 4, !tbaa !13
  %26 = icmp sgt i32 %25, 10
  br i1 %26, label %27, label %40

27:                                               ; preds = %3
  %28 = load ptr, ptr %5, align 8, !tbaa !29
  %29 = load i32, ptr %28, align 4, !tbaa !13
  %30 = load i32, ptr %7, align 4, !tbaa !13
  %31 = icmp sgt i32 %29, %30
  br i1 %31, label %32, label %35

32:                                               ; preds = %27
  %33 = load ptr, ptr %5, align 8, !tbaa !29
  %34 = load i32, ptr %33, align 4, !tbaa !13
  br label %37

35:                                               ; preds = %27
  %36 = load i32, ptr %7, align 4, !tbaa !13
  br label %37

37:                                               ; preds = %35, %32
  %38 = phi i32 [ %34, %32 ], [ %36, %35 ]
  %39 = load ptr, ptr %6, align 8, !tbaa !29
  store i32 %38, ptr %39, align 4, !tbaa !13
  br label %40

40:                                               ; preds = %37, %3
  call void @llvm.lifetime.end.p0(i64 4, ptr %7) #6
  ret void
}