; Function Attrs: nounwind uwtable
define internal void @dtgtk_side_panel_get_preferred_width(ptr noundef %0, ptr noundef %1, ptr noundef %2) #0 {
  %4 = load ptr, ptr @dtgtk_side_panel_parent_class, align 8, !tbaa !10
  %5 = tail call i64 @gtk_widget_get_type() #8
  %6 = tail call ptr @g_type_check_class_cast(ptr noundef %4, i64 noundef %5) #7
  %7 = getelementptr inbounds nuw i8, ptr %6, i64 320
  %8 = load ptr, ptr %7, align 8, !tbaa !20
  tail call void %8(ptr noundef %0, ptr noundef %1, ptr noundef %2) #7
  %9 = load ptr, ptr getelementptr inbounds nuw (i8, ptr @darktable, i64 104), align 8, !tbaa !21
  %10 = load ptr, ptr %9, align 8, !tbaa !58
  %11 = tail call ptr @gtk_widget_get_name(ptr noundef %0) #7
  %12 = tail call i32 @strcmp(ptr noundef nonnull dereferenceable(1) %11, ptr noundef nonnull dereferenceable(6) @.str.2) #9
  %.not = icmp eq i32 %12, 0
  %13 = select i1 %.not, i32 4, i32 3
  %14 = tail call i32 @dt_ui_panel_get_size(ptr noundef %10, i32 noundef %13) #7
  %15 = icmp sgt i32 %14, 10
  br i1 %15, label %16, label %18

16:                                               ; preds = %3
  %17 = load i32, ptr %1, align 4, !tbaa !12
  %. = tail call i32 @llvm.smax.i32(i32 %17, i32 %14)
  store i32 %., ptr %2, align 4, !tbaa !12
  br label %18

18:                                               ; preds = %16, %3
  ret void
}